; ModuleID = '63/1876.c'
source_filename = "63/1876.c"
target datalayout = "e-m:e-p270:32:32-p271:32:32-p272:64:64-i64:64-f80:128-n8:16:32:64-S128"
target triple = "x86_64-pc-linux-gnu"

@.str = private unnamed_addr constant [6 x i8] c"%d %d\00", align 1
@.str.1 = private unnamed_addr constant [3 x i8] c"%d\00", align 1
@.str.2 = private unnamed_addr constant [4 x i8] c" %d\00", align 1
@.str.3 = private unnamed_addr constant [2 x i8] c"\0A\00", align 1

; Function Attrs: noinline nounwind uwtable
define dso_local i32 @main() #0 {
  %1 = alloca i32, align 4
  %2 = alloca i32, align 4
  %3 = alloca i32, align 4
  %4 = alloca [101 x [101 x i32]], align 16
  %5 = alloca [101 x [101 x i32]], align 16
  %6 = alloca [101 x [101 x i32]], align 16
  %7 = alloca i32, align 4
  %8 = alloca i32, align 4
  %9 = alloca i32, align 4
  %10 = alloca i32, align 4
  %11 = alloca i32, align 4
  %12 = alloca i32, align 4
  %13 = alloca i32, align 4
  %14 = alloca i32, align 4
  %15 = alloca i32, align 4
  %16 = alloca i32, align 4
  %17 = alloca i32, align 4
  store i32 0, i32* %1, align 4
  store i32 0, i32* %2, align 4
  store i32 0, i32* %3, align 4
  %18 = call i32 (i8*, ...) @__isoc99_scanf(i8* getelementptr inbounds ([6 x i8], [6 x i8]* @.str, i64 0, i64 0), i32* %2, i32* %3)
  %19 = load i32, i32* %2, align 4
  %20 = icmp eq i32 %19, 0
  br i1 %20, label %21, label %22

21:                                               ; preds = %0
  br label %160

22:                                               ; preds = %0
  %23 = bitcast [101 x [101 x i32]]* %4 to i8*
  call void @llvm.memset.p0i8.i64(i8* align 16 %23, i8 0, i64 40804, i1 false)
  %24 = bitcast [101 x [101 x i32]]* %5 to i8*
  call void @llvm.memset.p0i8.i64(i8* align 16 %24, i8 0, i64 40804, i1 false)
  %25 = bitcast [101 x [101 x i32]]* %6 to i8*
  call void @llvm.memset.p0i8.i64(i8* align 16 %25, i8 0, i64 40804, i1 false)
  store i32 0, i32* %7, align 4
  br label %26

26:                                               ; preds = %47, %22
  %27 = load i32, i32* %7, align 4
  %28 = load i32, i32* %2, align 4
  %29 = icmp slt i32 %27, %28
  br i1 %29, label %30, label %50

30:                                               ; preds = %26
  store i32 0, i32* %8, align 4
  br label %31

31:                                               ; preds = %43, %30
  %32 = load i32, i32* %8, align 4
  %33 = load i32, i32* %3, align 4
  %34 = icmp slt i32 %32, %33
  br i1 %34, label %35, label %46

35:                                               ; preds = %31
  %36 = load i32, i32* %7, align 4
  %37 = sext i32 %36 to i64
  %38 = getelementptr inbounds [101 x [101 x i32]], [101 x [101 x i32]]* %4, i64 0, i64 %37
  %39 = load i32, i32* %8, align 4
  %40 = sext i32 %39 to i64
  %41 = getelementptr inbounds [101 x i32], [101 x i32]* %38, i64 0, i64 %40
  %42 = call i32 (i8*, ...) @__isoc99_scanf(i8* getelementptr inbounds ([3 x i8], [3 x i8]* @.str.1, i64 0, i64 0), i32* %41)
  br label %43

43:                                               ; preds = %35
  %44 = load i32, i32* %8, align 4
  %45 = add nsw i32 %44, 1
  store i32 %45, i32* %8, align 4
  br label %31

46:                                               ; preds = %31
  br label %47

47:                                               ; preds = %46
  %48 = load i32, i32* %7, align 4
  %49 = add nsw i32 %48, 1
  store i32 %49, i32* %7, align 4
  br label %26

50:                                               ; preds = %26
  store i32 0, i32* %9, align 4
  store i32 0, i32* %10, align 4
  %51 = call i32 (i8*, ...) @__isoc99_scanf(i8* getelementptr inbounds ([6 x i8], [6 x i8]* @.str, i64 0, i64 0), i32* %9, i32* %10)
  store i32 0, i32* %11, align 4
  br label %52

52:                                               ; preds = %73, %50
  %53 = load i32, i32* %11, align 4
  %54 = load i32, i32* %9, align 4
  %55 = icmp slt i32 %53, %54
  br i1 %55, label %56, label %76

56:                                               ; preds = %52
  store i32 0, i32* %12, align 4
  br label %57

57:                                               ; preds = %69, %56
  %58 = load i32, i32* %12, align 4
  %59 = load i32, i32* %10, align 4
  %60 = icmp slt i32 %58, %59
  br i1 %60, label %61, label %72

61:                                               ; preds = %57
  %62 = load i32, i32* %11, align 4
  %63 = sext i32 %62 to i64
  %64 = getelementptr inbounds [101 x [101 x i32]], [101 x [101 x i32]]* %5, i64 0, i64 %63
  %65 = load i32, i32* %12, align 4
  %66 = sext i32 %65 to i64
  %67 = getelementptr inbounds [101 x i32], [101 x i32]* %64, i64 0, i64 %66
  %68 = call i32 (i8*, ...) @__isoc99_scanf(i8* getelementptr inbounds ([3 x i8], [3 x i8]* @.str.1, i64 0, i64 0), i32* %67)
  br label %69

69:                                               ; preds = %61
  %70 = load i32, i32* %12, align 4
  %71 = add nsw i32 %70, 1
  store i32 %71, i32* %12, align 4
  br label %57

72:                                               ; preds = %57
  br label %73

73:                                               ; preds = %72
  %74 = load i32, i32* %11, align 4
  %75 = add nsw i32 %74, 1
  store i32 %75, i32* %11, align 4
  br label %52

76:                                               ; preds = %52
  store i32 0, i32* %13, align 4
  br label %77

77:                                               ; preds = %123, %76
  %78 = load i32, i32* %13, align 4
  %79 = load i32, i32* %2, align 4
  %80 = icmp slt i32 %78, %79
  br i1 %80, label %81, label %126

81:                                               ; preds = %77
  store i32 0, i32* %14, align 4
  br label %82

82:                                               ; preds = %119, %81
  %83 = load i32, i32* %14, align 4
  %84 = load i32, i32* %10, align 4
  %85 = icmp slt i32 %83, %84
  br i1 %85, label %86, label %122

86:                                               ; preds = %82
  store i32 0, i32* %15, align 4
  br label %87

87:                                               ; preds = %115, %86
  %88 = load i32, i32* %15, align 4
  %89 = load i32, i32* %9, align 4
  %90 = icmp slt i32 %88, %89
  br i1 %90, label %91, label %118

91:                                               ; preds = %87
  %92 = load i32, i32* %13, align 4
  %93 = sext i32 %92 to i64
  %94 = getelementptr inbounds [101 x [101 x i32]], [101 x [101 x i32]]* %4, i64 0, i64 %93
  %95 = load i32, i32* %15, align 4
  %96 = sext i32 %95 to i64
  %97 = getelementptr inbounds [101 x i32], [101 x i32]* %94, i64 0, i64 %96
  %98 = load i32, i32* %97, align 4
  %99 = load i32, i32* %15, align 4
  %100 = sext i32 %99 to i64
  %101 = getelementptr inbounds [101 x [101 x i32]], [101 x [101 x i32]]* %5, i64 0, i64 %100
  %102 = load i32, i32* %14, align 4
  %103 = sext i32 %102 to i64
  %104 = getelementptr inbounds [101 x i32], [101 x i32]* %101, i64 0, i64 %103
  %105 = load i32, i32* %104, align 4
  %106 = mul nsw i32 %98, %105
  %107 = load i32, i32* %13, align 4
  %108 = sext i32 %107 to i64
  %109 = getelementptr inbounds [101 x [101 x i32]], [101 x [101 x i32]]* %6, i64 0, i64 %108
  %110 = load i32, i32* %14, align 4
  %111 = sext i32 %110 to i64
  %112 = getelementptr inbounds [101 x i32], [101 x i32]* %109, i64 0, i64 %111
  %113 = load i32, i32* %112, align 4
  %114 = add nsw i32 %113, %106
  store i32 %114, i32* %112, align 4
  br label %115

115:                                              ; preds = %91
  %116 = load i32, i32* %15, align 4
  %117 = add nsw i32 %116, 1
  store i32 %117, i32* %15, align 4
  br label %87

118:                                              ; preds = %87
  br label %119

119:                                              ; preds = %118
  %120 = load i32, i32* %14, align 4
  %121 = add nsw i32 %120, 1
  store i32 %121, i32* %14, align 4
  br label %82

122:                                              ; preds = %82
  br label %123

123:                                              ; preds = %122
  %124 = load i32, i32* %13, align 4
  %125 = add nsw i32 %124, 1
  store i32 %125, i32* %13, align 4
  br label %77

126:                                              ; preds = %77
  store i32 0, i32* %16, align 4
  br label %127

127:                                              ; preds = %156, %126
  %128 = load i32, i32* %16, align 4
  %129 = load i32, i32* %2, align 4
  %130 = icmp slt i32 %128, %129
  br i1 %130, label %131, label %159

131:                                              ; preds = %127
  %132 = load i32, i32* %16, align 4
  %133 = sext i32 %132 to i64
  %134 = getelementptr inbounds [101 x [101 x i32]], [101 x [101 x i32]]* %6, i64 0, i64 %133
  %135 = getelementptr inbounds [101 x i32], [101 x i32]* %134, i64 0, i64 0
  %136 = load i32, i32* %135, align 4
  %137 = call i32 (i8*, ...) @printf(i8* getelementptr inbounds ([3 x i8], [3 x i8]* @.str.1, i64 0, i64 0), i32 %136)
  store i32 1, i32* %17, align 4
  br label %138

138:                                              ; preds = %151, %131
  %139 = load i32, i32* %17, align 4
  %140 = load i32, i32* %10, align 4
  %141 = icmp slt i32 %139, %140
  br i1 %141, label %142, label %154

142:                                              ; preds = %138
  %143 = load i32, i32* %16, align 4
  %144 = sext i32 %143 to i64
  %145 = getelementptr inbounds [101 x [101 x i32]], [101 x [101 x i32]]* %6, i64 0, i64 %144
  %146 = load i32, i32* %17, align 4
  %147 = sext i32 %146 to i64
  %148 = getelementptr inbounds [101 x i32], [101 x i32]* %145, i64 0, i64 %147
  %149 = load i32, i32* %148, align 4
  %150 = call i32 (i8*, ...) @printf(i8* getelementptr inbounds ([4 x i8], [4 x i8]* @.str.2, i64 0, i64 0), i32 %149)
  br label %151

151:                                              ; preds = %142
  %152 = load i32, i32* %17, align 4
  %153 = add nsw i32 %152, 1
  store i32 %153, i32* %17, align 4
  br label %138

154:                                              ; preds = %138
  %155 = call i32 (i8*, ...) @printf(i8* getelementptr inbounds ([2 x i8], [2 x i8]* @.str.3, i64 0, i64 0))
  br label %156

156:                                              ; preds = %154
  %157 = load i32, i32* %16, align 4
  %158 = add nsw i32 %157, 1
  store i32 %158, i32* %16, align 4
  br label %127

159:                                              ; preds = %127
  br label %160

160:                                              ; preds = %159, %21
  %161 = load i32, i32* %1, align 4
  ret i32 %161
}

declare dso_local i32 @__isoc99_scanf(i8*, ...) #1

; Function Attrs: argmemonly nounwind willreturn
declare void @llvm.memset.p0i8.i64(i8* nocapture writeonly, i8, i64, i1 immarg) #2

declare dso_local i32 @printf(i8*, ...) #1


!llvm.module.flags = !{!0}
!llvm.ident = !{!1}

!0 = !{i32 1, !"wchar_size", i32 4}
!1 = !{!"clang version 10.0.0-4ubuntu1 "}
